; ModuleID = '34/2334.c'
source_filename = "34/2334.c"
target datalayout = "e-m:e-p270:32:32-p271:32:32-p272:64:64-i64:64-f80:128-n8:16:32:64-S128"
target triple = "x86_64-pc-linux-gnu"

@.str = private unnamed_addr constant [3 x i8] c"%d\00", align 1
@.str.1 = private unnamed_addr constant [9 x i8] c"%d/2=%d\0A\00", align 1
@.str.2 = private unnamed_addr constant [11 x i8] c"%d*3+1=%d\0A\00", align 1
@.str.3 = private unnamed_addr constant [4 x i8] c"End\00", align 1

; Function Attrs: noinline nounwind uwtable
define dso_local i32 @main(i32 %0, i8** %1) #0 {
  %3 = alloca i32, align 4
  %4 = alloca i32, align 4
  %5 = alloca i8**, align 8
  %6 = alloca i32, align 4
  %7 = alloca i32, align 4
  %8 = alloca [100 x i32], align 16
  store i32 0, i32* %3, align 4
  store i32 %0, i32* %4, align 4
  store i8** %1, i8*** %5, align 8
  %9 = call i32 (i8*, ...) @__isoc99_scanf(i8* getelementptr inbounds ([3 x i8], [3 x i8]* @.str, i64 0, i64 0), i32* %6)
  %10 = load i32, i32* %6, align 4
  %11 = getelementptr inbounds [100 x i32], [100 x i32]* %8, i64 0, i64 1
  store i32 %10, i32* %11, align 4
  %12 = load i32, i32* %6, align 4
  %13 = icmp ne i32 %12, 1
  br i1 %13, label %14, label %82

14:                                               ; preds = %2
  store i32 1, i32* %7, align 4
  br label %15

15:                                               ; preds = %77, %14
  %16 = load i32, i32* %7, align 4
  %17 = sext i32 %16 to i64
  %18 = getelementptr inbounds [100 x i32], [100 x i32]* %8, i64 0, i64 %17
  %19 = load i32, i32* %18, align 4
  %20 = icmp ne i32 %19, 1
  br i1 %20, label %21, label %80

21:                                               ; preds = %15
  %22 = load i32, i32* %7, align 4
  %23 = sext i32 %22 to i64
  %24 = getelementptr inbounds [100 x i32], [100 x i32]* %8, i64 0, i64 %23
  %25 = load i32, i32* %24, align 4
  %26 = srem i32 %25, 2
  %27 = icmp eq i32 %26, 0
  br i1 %27, label %28, label %48

28:                                               ; preds = %21
  %29 = load i32, i32* %7, align 4
  %30 = sext i32 %29 to i64
  %31 = getelementptr inbounds [100 x i32], [100 x i32]* %8, i64 0, i64 %30
  %32 = load i32, i32* %31, align 4
  %33 = sdiv i32 %32, 2
  %34 = load i32, i32* %7, align 4
  %35 = add nsw i32 %34, 1
  %36 = sext i32 %35 to i64
  %37 = getelementptr inbounds [100 x i32], [100 x i32]* %8, i64 0, i64 %36
  store i32 %33, i32* %37, align 4
  %38 = load i32, i32* %7, align 4
  %39 = sext i32 %38 to i64
  %40 = getelementptr inbounds [100 x i32], [100 x i32]* %8, i64 0, i64 %39
  %41 = load i32, i32* %40, align 4
  %42 = load i32, i32* %7, align 4
  %43 = add nsw i32 %42, 1
  %44 = sext i32 %43 to i64
  %45 = getelementptr inbounds [100 x i32], [100 x i32]* %8, i64 0, i64 %44
  %46 = load i32, i32* %45, align 4
  %47 = call i32 (i8*, ...) @printf(i8* getelementptr inbounds ([9 x i8], [9 x i8]* @.str.1, i64 0, i64 0), i32 %41, i32 %46)
  br label %48

48:                                               ; preds = %28, %21
  %49 = load i32, i32* %7, align 4
  %50 = sext i32 %49 to i64
  %51 = getelementptr inbounds [100 x i32], [100 x i32]* %8, i64 0, i64 %50
  %52 = load i32, i32* %51, align 4
  %53 = srem i32 %52, 2
  %54 = icmp eq i32 %53, 1
  br i1 %54, label %55, label %76

55:                                               ; preds = %48
  %56 = load i32, i32* %7, align 4
  %57 = sext i32 %56 to i64
  %58 = getelementptr inbounds [100 x i32], [100 x i32]* %8, i64 0, i64 %57
  %59 = load i32, i32* %58, align 4
  %60 = mul nsw i32 %59, 3
  %61 = add nsw i32 %60, 1
  %62 = load i32, i32* %7, align 4
  %63 = add nsw i32 %62, 1
  %64 = sext i32 %63 to i64
  %65 = getelementptr inbounds [100 x i32], [100 x i32]* %8, i64 0, i64 %64
  store i32 %61, i32* %65, align 4
  %66 = load i32, i32* %7, align 4
  %67 = sext i32 %66 to i64
  %68 = getelementptr inbounds [100 x i32], [100 x i32]* %8, i64 0, i64 %67
  %69 = load i32, i32* %68, align 4
  %70 = load i32, i32* %7, align 4
  %71 = add nsw i32 %70, 1
  %72 = sext i32 %71 to i64
  %73 = getelementptr inbounds [100 x i32], [100 x i32]* %8, i64 0, i64 %72
  %74 = load i32, i32* %73, align 4
  %75 = call i32 (i8*, ...) @printf(i8* getelementptr inbounds ([11 x i8], [11 x i8]* @.str.2, i64 0, i64 0), i32 %69, i32 %74)
  br label %76

76:                                               ; preds = %55, %48
  br label %77

77:                                               ; preds = %76
  %78 = load i32, i32* %7, align 4
  %79 = add nsw i32 %78, 1
  store i32 %79, i32* %7, align 4
  br label %15

80:                                               ; preds = %15
  %81 = call i32 (i8*, ...) @printf(i8* getelementptr inbounds ([4 x i8], [4 x i8]* @.str.3, i64 0, i64 0))
  br label %82

82:                                               ; preds = %80, %2
  %83 = load i32, i32* %6, align 4
  %84 = icmp eq i32 %83, 1
  br i1 %84, label %85, label %87

85:                                               ; preds = %82
  %86 = call i32 (i8*, ...) @printf(i8* getelementptr inbounds ([4 x i8], [4 x i8]* @.str.3, i64 0, i64 0))
  br label %87

87:                                               ; preds = %85, %82
  ret i32 0
}

declare dso_local i32 @__isoc99_scanf(i8*, ...) #1

declare dso_local i32 @printf(i8*, ...) #1


!llvm.module.flags = !{!0}
!llvm.ident = !{!1}

!0 = !{i32 1, !"wchar_size", i32 4}
!1 = !{!"clang version 10.0.0-4ubuntu1 "}
